Certificate:
    Data:
        Version: 1 (0x0)
        Serial Number: 4097 (0x1001)
    Signature Algorithm: sha256WithRSAEncryption
        Issuer: C=XX, O=Stenographer, CN=*.steno
        Validity
            Not Before: Jan 28 12:42:55 2018 GMT
            Not After : Jun 14 12:42:55 2045 GMT
        Subject: O=Stenographer, C=XX, CN=127.0.0.1
        Subject Public Key Info:
            Public Key Algorithm: rsaEncryption
                Public-Key: (4096 bit)
                Modulus:
                    00:b0:4e:d1:fc:e1:ff:91:30:78:f6:06:0a:ee:1b:
                    84:40:0a:3f:71:ec:9a:1b:51:b3:01:c1:de:d5:b6:
                    7f:47:25:4c:17:07:72:06:ca:79:db:45:ba:09:3e:
                    cd:fd:2b:41:ac:62:e0:2c:f4:8f:8a:ef:44:3a:3d:
                    97:bf:56:3e:65:05:1c:5a:73:f8:e9:53:b9:a8:c6:
                    b4:33:be:78:a4:9b:20:a7:79:85:97:a6:69:83:99:
                    d5:66:09:5e:d9:33:a7:dc:a1:3e:ef:fc:04:a0:b5:
                    c9:f0:d4:6f:ca:6c:76:46:f5:e9:4d:87:ee:4e:c8:
                    03:6b:63:e0:6b:fe:53:19:00:0e:73:50:9a:37:b2:
                    e9:7f:17:5e:b9:fb:d1:4d:78:83:62:8b:f6:53:88:
                    be:0c:5f:28:52:aa:2a:f1:08:a1:17:c5:80:43:1f:
                    f3:92:e5:0c:2d:7e:ac:b2:d5:b2:c1:69:d7:44:98:
                    64:45:69:35:bc:46:e0:41:b5:1d:15:50:0b:29:01:
                    d9:de:cd:cf:c8:0c:9b:c6:80:67:27:a0:2b:28:81:
                    7b:34:1b:d6:e4:d7:25:59:6d:73:36:1c:7f:4c:ea:
                    97:f0:98:69:8d:9e:df:d3:e3:97:38:06:7e:ce:5f:
                    4c:50:4e:99:58:a8:35:57:5f:a8:fe:9b:45:4e:da:
                    b0:0f:f8:0f:e6:1e:13:71:fd:b0:2c:34:26:b9:d1:
                    48:da:c7:9a:00:6b:18:74:f0:b1:a9:a3:f3:05:c1:
                    22:91:d3:d6:5e:44:cb:03:a3:76:79:5c:af:35:84:
                    35:4c:fa:f0:01:a1:71:aa:08:3f:b2:ab:63:44:a9:
                    50:b5:b8:0e:c2:73:bf:87:c7:f4:a6:27:fe:c8:c1:
                    75:c2:62:55:d2:3d:98:77:a5:29:09:b9:2b:d4:dc:
                    06:09:ee:80:e5:fb:93:d3:79:22:9f:30:4f:fe:9f:
                    7f:3a:3c:f1:ad:c2:56:15:d1:5a:d9:a8:2b:90:f8:
                    71:19:a8:e5:5b:bd:0f:4a:a8:8f:92:d7:60:59:55:
                    c7:ea:59:9a:69:9d:30:8f:a2:c0:e3:94:16:58:24:
                    c4:5b:8e:0b:e5:47:82:98:32:3c:d0:c9:ae:1d:55:
                    88:f7:e7:23:69:0a:17:ca:15:e0:d3:3a:57:f1:14:
                    b4:bb:96:a5:17:bb:a6:8d:b1:41:47:f5:5b:7e:08:
                    09:9c:f6:a0:82:c5:5c:3e:d7:8e:cb:84:8a:0d:c4:
                    ac:c3:00:4e:2a:39:8c:b4:7c:51:a4:4f:35:07:ca:
                    58:4c:57:a6:f9:c0:be:f8:85:6c:82:af:3e:76:db:
                    a9:b3:9f:4a:f7:92:18:26:62:b6:81:3d:da:5a:dd:
                    fc:fe:17
                Exponent: 65537 (0x10001)
    Signature Algorithm: sha256WithRSAEncryption
         b0:6f:8c:c0:f0:49:7e:f1:22:34:9b:de:d2:17:03:0c:e4:55:
         20:50:d8:ac:31:a5:51:7d:41:78:cf:dc:0c:a3:eb:2c:29:0c:
         e4:ac:44:5a:38:90:2d:3c:7f:bd:78:30:72:55:a4:ef:46:5a:
         20:c9:cd:e3:ee:55:3c:fb:5f:b6:f3:e7:85:d1:20:34:6f:47:
         9b:8f:d2:6f:70:04:0b:12:25:e5:ea:01:76:86:e1:db:90:c6:
         f7:74:7b:6a:ce:70:ba:31:62:32:cb:da:78:0e:9f:cf:3e:91:
         86:3a:e4:bb:52:06:8e:62:0d:4e:45:fa:b7:ad:03:2a:a6:d8:
         a8:7c:16:58:99:88:f8:42:08:81:d2:79:a1:16:d5:57:a4:26:
         ca:22:ed:05:db:72:89:88:29:23:a8:cd:8e:45:4d:94:97:f5:
         98:3e:56:ff:e4:b2:c5:c9:72:f5:ac:e5:a0:6e:81:82:d5:28:
         c3:cf:2a:a3:1c:fb:a3:b9:3c:5c:3d:37:65:7c:ed:81:9d:6e:
         ce:a6:8a:d5:59:64:e0:0f:e3:b2:47:46:d9:76:b0:27:58:77:
         51:1e:b6:4a:19:1c:cb:3f:64:ca:90:65:17:38:93:10:54:8b:
         11:3b:3f:7f:34:f5:18:38:ca:20:98:b1:56:a7:29:10:ed:b4:
         d3:96:d3:af:7a:5b:e4:c0:50:c3:b3:65:31:3d:96:3d:d3:68:
         ef:3b:56:95:d2:e5:c3:3e:6f:71:36:fd:e1:74:5e:0b:bd:d0:
         4c:1a:1a:92:c9:2b:03:3b:8d:6d:d3:7a:08:95:15:a1:0f:03:
         b8:93:d5:51:0c:86:98:3e:d3:e7:ed:31:53:88:39:7f:09:21:
         28:49:7b:79:48:30:b0:ad:9d:7f:24:4e:fe:2b:55:ba:f1:1c:
         da:bc:a4:f7:6b:3c:c2:6f:ce:82:63:c1:d4:df:aa:81:11:e1:
         5e:ee:32:90:87:4e:62:cd:52:a6:75:60:86:2c:83:20:fa:cc:
         b7:ce:0c:c3:86:2d:d9:8e:8e:c5:9a:62:f9:41:f4:1c:e3:61:
         32:56:69:f2:e4:73:f7:c9:a8:79:fa:b6:04:c9:ac:c3:e6:aa:
         e6:bb:ce:da:7d:45:f4:15:be:a0:0a:7b:86:d4:1f:18:7c:e3:
         d2:32:79:52:db:ad:18:ce:24:62:4c:d8:0e:1f:fb:9d:da:10:
         51:71:55:1e:d1:70:49:f6:74:6d:75:39:90:ae:61:29:38:6b:
         d7:e3:1b:33:27:c8:6c:d8:2c:2c:01:d0:c8:21:60:c0:88:4a:
         7c:47:d0:65:f4:53:64:92:c6:a5:74:0d:c5:eb:af:0c:fd:be:
         93:cc:58:49:20:cf:46:30
-----BEGIN CERTIFICATE-----
MIIE4zCCAssCAhABMA0GCSqGSIb3DQEBCwUAMDYxCzAJBgNVBAYTAlhYMRUwEwYD
VQQKDAxTdGVub2dyYXBoZXIxEDAOBgNVBAMMByouc3Rlbm8wHhcNMTgwMTI4MTI0
MjU1WhcNNDUwNjE0MTI0MjU1WjA4MRUwEwYDVQQKDAxTdGVub2dyYXBoZXIxCzAJ
BgNVBAYTAlhYMRIwEAYDVQQDDAkxMjcuMC4wLjEwggIiMA0GCSqGSIb3DQEBAQUA
A4ICDwAwggIKAoICAQCwTtH84f+RMHj2BgruG4RACj9x7JobUbMBwd7Vtn9HJUwX
B3IGynnbRboJPs39K0GsYuAs9I+K70Q6PZe/Vj5lBRxac/jpU7moxrQzvnikmyCn
eYWXpmmDmdVmCV7ZM6fcoT7v/ASgtcnw1G/KbHZG9elNh+5OyANrY+Br/lMZAA5z
UJo3sul/F165+9FNeINii/ZTiL4MXyhSqirxCKEXxYBDH/OS5Qwtfqyy1bLBaddE
mGRFaTW8RuBBtR0VUAspAdnezc/IDJvGgGcnoCsogXs0G9bk1yVZbXM2HH9M6pfw
mGmNnt/T45c4Bn7OX0xQTplYqDVXX6j+m0VO2rAP+A/mHhNx/bAsNCa50Ujax5oA
axh08LGpo/MFwSKR09ZeRMsDo3Z5XK81hDVM+vABoXGqCD+yq2NEqVC1uA7Cc7+H
x/SmJ/7IwXXCYlXSPZh3pSkJuSvU3AYJ7oDl+5PTeSKfME/+n386PPGtwlYV0VrZ
qCuQ+HEZqOVbvQ9KqI+S12BZVcfqWZppnTCPosDjlBZYJMRbjgvlR4KYMjzQya4d
VYj35yNpChfKFeDTOlfxFLS7lqUXu6aNsUFH9Vt+CAmc9qCCxVw+147LhIoNxKzD
AE4qOYy0fFGkTzUHylhMV6b5wL74hWyCrz5226mzn0r3khgmYraBPdpa3fz+FwID
AQABMA0GCSqGSIb3DQEBCwUAA4ICAQCwb4zA8El+8SI0m97SFwMM5FUgUNisMaVR
fUF4z9wMo+ssKQzkrERaOJAtPH+9eDByVaTvRlogyc3j7lU8+1+28+eF0SA0b0eb
j9JvcAQLEiXl6gF2huHbkMb3dHtqznC6MWIyy9p4Dp/PPpGGOuS7UgaOYg1ORfq3
rQMqptiofBZYmYj4QgiB0nmhFtVXpCbKIu0F23KJiCkjqM2ORU2Ul/WYPlb/5LLF
yXL1rOWgboGC1SjDzyqjHPujuTxcPTdlfO2BnW7OporVWWTgD+OyR0bZdrAnWHdR
HrZKGRzLP2TKkGUXOJMQVIsROz9/NPUYOMogmLFWpykQ7bTTltOvelvkwFDDs2Ux
PZY902jvO1aV0uXDPm9xNv3hdF4LvdBMGhqSySsDO41t03oIlRWhDwO4k9VRDIaY
PtPn7TFTiDl/CSEoSXt5SDCwrZ1/JE7+K1W68RzavKT3azzCb86CY8HU36qBEeFe
7jKQh05izVKmdWCGLIMg+sy3zgzDhi3Zjo7FmmL5QfQc42EyVmny5HP3yah5+rYE
yazD5qrmu87afUX0Fb6gCnuG1B8YfOPSMnlS260YziRiTNgOH/ud2hBRcVUe0XBJ
9nRtdTmQrmEpOGvX4xszJ8hs2CwsAdDIIWDAiEp8R9Bl9FNkksaldA3F668M/b6T
zFhJIM9GMA==
-----END CERTIFICATE-----

